target datalayout = "e-m:e-p270:32:32-p271:32:32-p272:64:64-i64:64-i128:128-f80:128-n8:16:32:64-S128"
target triple = "x86_64-pc-linux-gnu"

; Function Attrs: nounwind uwtable
define internal i32 @pdf_readint(ptr noundef %0, i32 noundef %1, ptr noundef %2) #0 {
  %4 = alloca ptr, align 8
  %5 = alloca i32, align 4
  %6 = alloca ptr, align 8
  %7 = alloca i64, align 8
  %8 = alloca ptr, align 8
  store ptr %0, ptr %4, align 8
  store i32 %1, ptr %5, align 4
  store ptr %2, ptr %6, align 8
  store i64 0, ptr %7, align 8
  %9 = load ptr, ptr %4, align 8
  %10 = load ptr, ptr %6, align 8
  %11 = call ptr @pdf_getdict(ptr noundef %9, ptr noundef %5, ptr noundef %10)
  store ptr %11, ptr %8, align 8
  %12 = load ptr, ptr %8, align 8
  %13 = icmp eq ptr %12, null
  br i1 %13, label %14, label %15

14:                                               ; preds = %3
  store i64 -1, ptr %7, align 8
  br label %23

15:                                               ; preds = %3
  %16 = load ptr, ptr %8, align 8
  %17 = load i32, ptr %5, align 4
  %18 = sext i32 %17 to i64
  %19 = call i32 @cli_strntol_wrap(ptr noundef %16, i64 noundef %18, i32 noundef 0, i32 noundef 10, ptr noundef %7)
  %20 = icmp ne i32 0, %19
  br i1 %20, label %21, label %22

21:                                               ; preds = %15
  store i64 -1, ptr %7, align 8
  br label %22

22:                                               ; preds = %21, %15
  br label %23

23:                                               ; preds = %22, %14
  %24 = load i64, ptr %7, align 8
  %25 = trunc i64 %24 to i32
  ret i32 %25
}