; Function Attrs: nounwind uwtable
define internal fastcc i32 @pdf_readint(ptr noundef %0, i32 noundef %1, ptr noundef %2) unnamed_addr #0 {
  %4 = alloca i32, align 4
  %5 = alloca i64, align 8
  store i32 %1, ptr %4, align 4
  store i64 0, ptr %5, align 8
  %6 = call fastcc ptr @pdf_getdict(ptr noundef %0, ptr noundef nonnull %4, ptr noundef %2)
  %7 = icmp eq ptr %6, null
  br i1 %7, label %13, label %8

8:                                                ; preds = %3
  %9 = load i32, ptr %4, align 4
  %10 = sext i32 %9 to i64
  %11 = call i32 @cli_strntol_wrap(ptr noundef nonnull %6, i64 noundef %10, i32 noundef 0, i32 noundef 10, ptr noundef nonnull %5) #22
  %.not = icmp eq i32 %11, 0
  br i1 %.not, label %._crit_edge, label %13

._crit_edge:                                      ; preds = %8
  %.pre = load i64, ptr %5, align 8
  %12 = trunc i64 %.pre to i32
  br label %13

13:                                               ; preds = %8, %3, %._crit_edge
  %14 = phi i32 [ %12, %._crit_edge ], [ -1, %3 ], [ -1, %8 ]
  ret i32 %14
}